target datalayout = "e-m:e-p270:32:32-p271:32:32-p272:64:64-i64:64-i128:128-f80:128-n8:16:32:64-S128"
target triple = "x86_64-pc-linux-gnu"

%struct.cbs_st = type { ptr, i64 }
%struct.cbb_st = type { ptr, ptr, i64, i8, i8, i8 }

@stderr = external global ptr, align 8
@.str.1 = private unnamed_addr constant [32 x i8] c"PKCS7_get_certificates failed.\0A\00", align 1
@.str.2 = private unnamed_addr constant [35 x i8] c"PKCS7_bundle_certificates failed.\0A\00", align 1
@.str.3 = private unnamed_addr constant [40 x i8] c"PKCS7_get_certificates reparse failed.\0A\00", align 1
@.str.4 = private unnamed_addr constant [36 x i8] c"Number of certs in results differ.\0A\00", align 1
@.str.5 = private unnamed_addr constant [26 x i8] c"Certificate %zu differs.\0A\00", align 1
@.str.6 = private unnamed_addr constant [51 x i8] c"PKCS7_bundle_certificates failed the second time.\0A\00", align 1
@.str.7 = private unnamed_addr constant [30 x i8] c"Serialisation is not stable.\0A\00", align 1

; Function Attrs: nounwind uwtable
define internal i32 @test_cert_reparse(ptr noundef %0, i64 noundef %1) #0 {
  %3 = alloca i32, align 4
  %4 = alloca ptr, align 8
  %5 = alloca i64, align 8
  %6 = alloca %struct.cbs_st, align 8
  %7 = alloca %struct.cbb_st, align 8
  %8 = alloca ptr, align 8
  %9 = alloca ptr, align 8
  %10 = alloca ptr, align 8
  %11 = alloca ptr, align 8
  %12 = alloca i64, align 8
  %13 = alloca i64, align 8
  %14 = alloca i64, align 8
  %15 = alloca i32, align 4
  %16 = alloca ptr, align 8
  %17 = alloca ptr, align 8
  store ptr %0, ptr %4, align 8, !tbaa !6
  store i64 %1, ptr %5, align 8, !tbaa !11
  call void @llvm.lifetime.start.p0(i64 16, ptr %6) #5
  call void @llvm.lifetime.start.p0(i64 32, ptr %7) #5
  call void @llvm.lifetime.start.p0(i64 8, ptr %8) #5
  %18 = call ptr @sk_new_null()
  store ptr %18, ptr %8, align 8, !tbaa !13
  call void @llvm.lifetime.start.p0(i64 8, ptr %9) #5
  %19 = call ptr @sk_new_null()
  store ptr %19, ptr %9, align 8, !tbaa !13
  call void @llvm.lifetime.start.p0(i64 8, ptr %10) #5
  call void @llvm.lifetime.start.p0(i64 8, ptr %11) #5
  call void @llvm.lifetime.start.p0(i64 8, ptr %12) #5
  call void @llvm.lifetime.start.p0(i64 8, ptr %13) #5
  call void @llvm.lifetime.start.p0(i64 8, ptr %14) #5
  %20 = load ptr, ptr %4, align 8, !tbaa !6
  %21 = load i64, ptr %5, align 8, !tbaa !11
  call void @CBS_init(ptr noundef %6, ptr noundef %20, i64 noundef %21)
  %22 = load ptr, ptr %8, align 8, !tbaa !13
  %23 = call i32 @PKCS7_get_certificates(ptr noundef %22, ptr noundef %6)
  %24 = icmp ne i32 %23, 0
  br i1 %24, label %28, label %25

25:                                               ; preds = %2
  %26 = load ptr, ptr @stderr, align 8, !tbaa !15
  %27 = call i32 (ptr, ptr, ...) @fprintf(ptr noundef %26, ptr noundef @.str.1) #5
  store i32 0, ptr %3, align 4
  store i32 1, ptr %15, align 4
  br label %116

28:                                               ; preds = %2
  %29 = load i64, ptr %5, align 8, !tbaa !11
  %30 = call i32 @CBB_init(ptr noundef %7, i64 noundef %29)
  %31 = load ptr, ptr %8, align 8, !tbaa !13
  %32 = call i32 @PKCS7_bundle_certificates(ptr noundef %7, ptr noundef %31)
  %33 = icmp ne i32 %32, 0
  br i1 %33, label %34, label %37

34:                                               ; preds = %28
  %35 = call i32 @CBB_finish(ptr noundef %7, ptr noundef %10, ptr noundef %12)
  %36 = icmp ne i32 %35, 0
  br i1 %36, label %40, label %37

37:                                               ; preds = %34, %28
  %38 = load ptr, ptr @stderr, align 8, !tbaa !15
  %39 = call i32 (ptr, ptr, ...) @fprintf(ptr noundef %38, ptr noundef @.str.2) #5
  store i32 0, ptr %3, align 4
  store i32 1, ptr %15, align 4
  br label %116

40:                                               ; preds = %34
  %41 = load ptr, ptr %10, align 8, !tbaa !6
  %42 = load i64, ptr %12, align 8, !tbaa !11
  call void @CBS_init(ptr noundef %6, ptr noundef %41, i64 noundef %42)
  %43 = load ptr, ptr %9, align 8, !tbaa !13
  %44 = call i32 @PKCS7_get_certificates(ptr noundef %43, ptr noundef %6)
  %45 = icmp ne i32 %44, 0
  br i1 %45, label %49, label %46

46:                                               ; preds = %40
  %47 = load ptr, ptr @stderr, align 8, !tbaa !15
  %48 = call i32 (ptr, ptr, ...) @fprintf(ptr noundef %47, ptr noundef @.str.3) #5
  store i32 0, ptr %3, align 4
  store i32 1, ptr %15, align 4
  br label %116

49:                                               ; preds = %40
  %50 = load ptr, ptr %8, align 8, !tbaa !13
  %51 = call i64 @sk_num(ptr noundef %50)
  %52 = load ptr, ptr %9, align 8, !tbaa !13
  %53 = call i64 @sk_num(ptr noundef %52)
  %54 = icmp ne i64 %51, %53
  br i1 %54, label %55, label %58

55:                                               ; preds = %49
  %56 = load ptr, ptr @stderr, align 8, !tbaa !15
  %57 = call i32 (ptr, ptr, ...) @fprintf(ptr noundef %56, ptr noundef @.str.4) #5
  store i32 0, ptr %3, align 4
  store i32 1, ptr %15, align 4
  br label %116

58:                                               ; preds = %49
  store i64 0, ptr %14, align 8, !tbaa !11
  br label %59

59:                                               ; preds = %83, %58
  %60 = load i64, ptr %14, align 8, !tbaa !11
  %61 = load ptr, ptr %8, align 8, !tbaa !13
  %62 = call i64 @sk_num(ptr noundef %61)
  %63 = icmp ult i64 %60, %62
  br i1 %63, label %64, label %86

64:                                               ; preds = %59
  call void @llvm.lifetime.start.p0(i64 8, ptr %16) #5
  %65 = load ptr, ptr %8, align 8, !tbaa !13
  %66 = load i64, ptr %14, align 8, !tbaa !11
  %67 = call ptr @sk_value(ptr noundef %65, i64 noundef %66)
  store ptr %67, ptr %16, align 8, !tbaa !17
  call void @llvm.lifetime.start.p0(i64 8, ptr %17) #5
  %68 = load ptr, ptr %9, align 8, !tbaa !13
  %69 = load i64, ptr %14, align 8, !tbaa !11
  %70 = call ptr @sk_value(ptr noundef %68, i64 noundef %69)
  store ptr %70, ptr %17, align 8, !tbaa !17
  %71 = load ptr, ptr %16, align 8, !tbaa !17
  %72 = load ptr, ptr %17, align 8, !tbaa !17
  %73 = call i32 @X509_cmp(ptr noundef %71, ptr noundef %72)
  %74 = icmp ne i32 %73, 0
  br i1 %74, label %75, label %79

75:                                               ; preds = %64
  %76 = load ptr, ptr @stderr, align 8, !tbaa !15
  %77 = load i64, ptr %14, align 8, !tbaa !11
  %78 = call i32 (ptr, ptr, ...) @fprintf(ptr noundef %76, ptr noundef @.str.5, i64 noundef %77) #5
  store i32 0, ptr %3, align 4
  store i32 1, ptr %15, align 4
  br label %80

79:                                               ; preds = %64
  store i32 0, ptr %15, align 4
  br label %80

80:                                               ; preds = %79, %75
  call void @llvm.lifetime.end.p0(i64 8, ptr %17) #5
  call void @llvm.lifetime.end.p0(i64 8, ptr %16) #5
  %81 = load i32, ptr %15, align 4
  switch i32 %81, label %116 [
    i32 0, label %82
  ]

82:                                               ; preds = %80
  br label %83

83:                                               ; preds = %82
  %84 = load i64, ptr %14, align 8, !tbaa !11
  %85 = add i64 %84, 1
  store i64 %85, ptr %14, align 8, !tbaa !11
  br label %59, !llvm.loop !19

86:                                               ; preds = %59
  %87 = load i64, ptr %5, align 8, !tbaa !11
  %88 = call i32 @CBB_init(ptr noundef %7, i64 noundef %87)
  %89 = load ptr, ptr %9, align 8, !tbaa !13
  %90 = call i32 @PKCS7_bundle_certificates(ptr noundef %7, ptr noundef %89)
  %91 = icmp ne i32 %90, 0
  br i1 %91, label %92, label %95

92:                                               ; preds = %86
  %93 = call i32 @CBB_finish(ptr noundef %7, ptr noundef %11, ptr noundef %13)
  %94 = icmp ne i32 %93, 0
  br i1 %94, label %98, label %95

95:                                               ; preds = %92, %86
  %96 = load ptr, ptr @stderr, align 8, !tbaa !15
  %97 = call i32 (ptr, ptr, ...) @fprintf(ptr noundef %96, ptr noundef @.str.6) #5
  store i32 0, ptr %3, align 4
  store i32 1, ptr %15, align 4
  br label %116

98:                                               ; preds = %92
  %99 = load i64, ptr %12, align 8, !tbaa !11
  %100 = load i64, ptr %13, align 8, !tbaa !11
  %101 = icmp ne i64 %99, %100
  br i1 %101, label %108, label %102

102:                                              ; preds = %98
  %103 = load ptr, ptr %10, align 8, !tbaa !6
  %104 = load ptr, ptr %11, align 8, !tbaa !6
  %105 = load i64, ptr %12, align 8, !tbaa !11
  %106 = call i32 @memcmp(ptr noundef %103, ptr noundef %104, i64 noundef %105) #6
  %107 = icmp ne i32 %106, 0
  br i1 %107, label %108, label %111

108:                                              ; preds = %102, %98
  %109 = load ptr, ptr @stderr, align 8, !tbaa !15
  %110 = call i32 (ptr, ptr, ...) @fprintf(ptr noundef %109, ptr noundef @.str.7) #5
  store i32 0, ptr %3, align 4
  store i32 1, ptr %15, align 4
  br label %116

111:                                              ; preds = %102
  %112 = load ptr, ptr %10, align 8, !tbaa !6
  call void @free(ptr noundef %112) #5
  %113 = load ptr, ptr %11, align 8, !tbaa !6
  call void @free(ptr noundef %113) #5
  %114 = load ptr, ptr %8, align 8, !tbaa !13
  call void @sk_pop_free(ptr noundef %114, ptr noundef @X509_free)
  %115 = load ptr, ptr %9, align 8, !tbaa !13
  call void @sk_pop_free(ptr noundef %115, ptr noundef @X509_free)
  store i32 1, ptr %3, align 4
  store i32 1, ptr %15, align 4
  br label %116

116:                                              ; preds = %111, %108, %95, %80, %55, %46, %37, %25
  call void @llvm.lifetime.end.p0(i64 8, ptr %14) #5
  call void @llvm.lifetime.end.p0(i64 8, ptr %13) #5
  call void @llvm.lifetime.end.p0(i64 8, ptr %12) #5
  call void @llvm.lifetime.end.p0(i64 8, ptr %11) #5
  call void @llvm.lifetime.end.p0(i64 8, ptr %10) #5
  call void @llvm.lifetime.end.p0(i64 8, ptr %9) #5
  call void @llvm.lifetime.end.p0(i64 8, ptr %8) #5
  call void @llvm.lifetime.end.p0(i64 32, ptr %7) #5
  call void @llvm.lifetime.end.p0(i64 16, ptr %6) #5
  %117 = load i32, ptr %3, align 4
  ret i32 %117
}