; Function Attrs: nounwind uwtable
define internal fastcc range(i32 0, 2) i32 @test_cert_reparse(ptr noundef %0, i64 noundef range(i64 693, 2896) %1) unnamed_addr #0 {
  %3 = alloca %struct.cbs_st, align 8
  %4 = alloca %struct.cbb_st, align 8
  %5 = alloca ptr, align 8
  %6 = alloca ptr, align 8
  %7 = alloca i64, align 8
  %8 = alloca i64, align 8
  call void @llvm.lifetime.start.p0(i64 16, ptr nonnull %3) #7
  call void @llvm.lifetime.start.p0(i64 32, ptr nonnull %4) #7
  %9 = tail call ptr @sk_new_null() #7
  %10 = tail call ptr @sk_new_null() #7
  call void @llvm.lifetime.start.p0(i64 8, ptr nonnull %5) #7
  call void @llvm.lifetime.start.p0(i64 8, ptr nonnull %6) #7
  call void @llvm.lifetime.start.p0(i64 8, ptr nonnull %7) #7
  call void @llvm.lifetime.start.p0(i64 8, ptr nonnull %8) #7
  call void @CBS_init(ptr noundef nonnull %3, ptr noundef %0, i64 noundef %1) #7
  %11 = call i32 @PKCS7_get_certificates(ptr noundef %9, ptr noundef nonnull %3) #7
  %.not = icmp eq i32 %11, 0
  br i1 %.not, label %12, label %15

12:                                               ; preds = %2
  %13 = load ptr, ptr @stderr, align 8, !tbaa !6
  %14 = call i64 @fwrite(ptr nonnull @.str.1, i64 31, i64 1, ptr %13) #8
  br label %64

15:                                               ; preds = %2
  %16 = call i32 @CBB_init(ptr noundef nonnull %4, i64 noundef %1) #7
  %17 = call i32 @PKCS7_bundle_certificates(ptr noundef nonnull %4, ptr noundef %9) #7
  %.not26 = icmp eq i32 %17, 0
  br i1 %.not26, label %20, label %18

18:                                               ; preds = %15
  %19 = call i32 @CBB_finish(ptr noundef nonnull %4, ptr noundef nonnull %5, ptr noundef nonnull %7) #7
  %.not27 = icmp eq i32 %19, 0
  br i1 %.not27, label %20, label %23

20:                                               ; preds = %18, %15
  %21 = load ptr, ptr @stderr, align 8, !tbaa !6
  %22 = call i64 @fwrite(ptr nonnull @.str.2, i64 34, i64 1, ptr %21) #8
  br label %64

23:                                               ; preds = %18
  %24 = load ptr, ptr %5, align 8, !tbaa !11
  %25 = load i64, ptr %7, align 8, !tbaa !13
  call void @CBS_init(ptr noundef nonnull %3, ptr noundef %24, i64 noundef %25) #7
  %26 = call i32 @PKCS7_get_certificates(ptr noundef %10, ptr noundef nonnull %3) #7
  %.not28 = icmp eq i32 %26, 0
  br i1 %.not28, label %27, label %30

27:                                               ; preds = %23
  %28 = load ptr, ptr @stderr, align 8, !tbaa !6
  %29 = call i64 @fwrite(ptr nonnull @.str.3, i64 39, i64 1, ptr %28) #8
  br label %64

30:                                               ; preds = %23
  %31 = call i64 @sk_num(ptr noundef %9) #7
  %32 = call i64 @sk_num(ptr noundef %10) #7
  %.not29 = icmp eq i64 %31, %32
  br i1 %.not29, label %.preheader, label %34

.preheader:                                       ; preds = %30
  %33 = call i64 @sk_num(ptr noundef %9) #7
  %.not37 = icmp eq i64 %33, 0
  br i1 %.not37, label %._crit_edge, label %.lr.ph

34:                                               ; preds = %30
  %35 = load ptr, ptr @stderr, align 8, !tbaa !6
  %36 = call i64 @fwrite(ptr nonnull @.str.4, i64 35, i64 1, ptr %35) #8
  br label %64

.lr.ph:                                           ; preds = %.preheader, %.critedge
  %.02336 = phi i64 [ %43, %.critedge ], [ 0, %.preheader ]
  %37 = call ptr @sk_value(ptr noundef %9, i64 noundef %.02336) #7
  %38 = call ptr @sk_value(ptr noundef %10, i64 noundef %.02336) #7
  %39 = call i32 @X509_cmp(ptr noundef %37, ptr noundef %38) #7
  %.not34 = icmp eq i32 %39, 0
  br i1 %.not34, label %.critedge, label %40

40:                                               ; preds = %.lr.ph
  %41 = load ptr, ptr @stderr, align 8, !tbaa !6
  %42 = call i32 (ptr, ptr, ...) @fprintf(ptr noundef %41, ptr noundef nonnull @.str.5, i64 noundef %.02336) #9
  br label %64

.critedge:                                        ; preds = %.lr.ph
  %43 = add nuw i64 %.02336, 1
  %44 = call i64 @sk_num(ptr noundef %9) #7
  %45 = icmp ult i64 %43, %44
  br i1 %45, label %.lr.ph, label %._crit_edge, !llvm.loop !17

._crit_edge:                                      ; preds = %.critedge, %.preheader
  %46 = call i32 @CBB_init(ptr noundef nonnull %4, i64 noundef %1) #7
  %47 = call i32 @PKCS7_bundle_certificates(ptr noundef nonnull %4, ptr noundef %10) #7
  %.not30 = icmp eq i32 %47, 0
  br i1 %.not30, label %50, label %48

48:                                               ; preds = %._crit_edge
  %49 = call i32 @CBB_finish(ptr noundef nonnull %4, ptr noundef nonnull %6, ptr noundef nonnull %8) #7
  %.not31 = icmp eq i32 %49, 0
  br i1 %.not31, label %50, label %53

50:                                               ; preds = %48, %._crit_edge
  %51 = load ptr, ptr @stderr, align 8, !tbaa !6
  %52 = call i64 @fwrite(ptr nonnull @.str.6, i64 50, i64 1, ptr %51) #8
  br label %64

53:                                               ; preds = %48
  %54 = load i64, ptr %7, align 8, !tbaa !13
  %55 = load i64, ptr %8, align 8, !tbaa !13
  %.not32 = icmp eq i64 %54, %55
  br i1 %.not32, label %56, label %59

56:                                               ; preds = %53
  %57 = load ptr, ptr %5, align 8, !tbaa !11
  %58 = load ptr, ptr %6, align 8, !tbaa !11
  %bcmp = call i32 @bcmp(ptr %57, ptr %58, i64 %54)
  %.not33 = icmp eq i32 %bcmp, 0
  br i1 %.not33, label %62, label %59

59:                                               ; preds = %56, %53
  %60 = load ptr, ptr @stderr, align 8, !tbaa !6
  %61 = call i64 @fwrite(ptr nonnull @.str.7, i64 29, i64 1, ptr %60) #8
  br label %64

62:                                               ; preds = %56
  call void @free(ptr noundef %57) #7
  %63 = load ptr, ptr %6, align 8, !tbaa !11
  call void @free(ptr noundef %63) #7
  call void @sk_pop_free(ptr noundef %9, ptr noundef nonnull @X509_free) #7
  call void @sk_pop_free(ptr noundef %10, ptr noundef nonnull @X509_free) #7
  br label %64

64:                                               ; preds = %40, %62, %59, %50, %34, %27, %20, %12
  %.0 = phi i32 [ 0, %34 ], [ 0, %40 ], [ 0, %59 ], [ 1, %62 ], [ 0, %50 ], [ 0, %27 ], [ 0, %20 ], [ 0, %12 ]
  call void @llvm.lifetime.end.p0(i64 8, ptr nonnull %8) #7
  call void @llvm.lifetime.end.p0(i64 8, ptr nonnull %7) #7
  call void @llvm.lifetime.end.p0(i64 8, ptr nonnull %6) #7
  call void @llvm.lifetime.end.p0(i64 8, ptr nonnull %5) #7
  call void @llvm.lifetime.end.p0(i64 32, ptr nonnull %4) #7
  call void @llvm.lifetime.end.p0(i64 16, ptr nonnull %3) #7
  ret i32 %.0
}